; ModuleID = '28/367.c'
source_filename = "28/367.c"
target datalayout = "e-m:e-p270:32:32-p271:32:32-p272:64:64-i64:64-f80:128-n8:16:32:64-S128"
target triple = "x86_64-pc-linux-gnu"

@.str = private unnamed_addr constant [4 x i8] c"%d,\00", align 1
@.str.1 = private unnamed_addr constant [3 x i8] c"%d\00", align 1

; Function Attrs: noinline nounwind uwtable
define dso_local void @main() #0 {
  %1 = alloca i32, align 4
  %2 = alloca i32, align 4
  %3 = alloca [3000 x i8], align 16
  %4 = alloca i8*, align 8
  store i32 0, i32* %1, align 4
  %5 = getelementptr inbounds [3000 x i8], [3000 x i8]* %3, i64 0, i64 0
  %6 = call i32 (i8*, ...) bitcast (i32 (...)* @gets to i32 (i8*, ...)*)(i8* %5)
  %7 = getelementptr inbounds [3000 x i8], [3000 x i8]* %3, i64 0, i64 0
  %8 = call i64 @strlen(i8* %7) #3
  %9 = trunc i64 %8 to i32
  store i32 %9, i32* %2, align 4
  %10 = getelementptr inbounds [3000 x i8], [3000 x i8]* %3, i64 0, i64 0
  store i8* %10, i8** %4, align 8
  %11 = getelementptr inbounds [3000 x i8], [3000 x i8]* %3, i64 0, i64 0
  store i8* %11, i8** %4, align 8
  br label %12

12:                                               ; preds = %48, %0
  %13 = load i8*, i8** %4, align 8
  %14 = getelementptr inbounds [3000 x i8], [3000 x i8]* %3, i64 0, i64 0
  %15 = load i32, i32* %2, align 4
  %16 = sext i32 %15 to i64
  %17 = getelementptr inbounds i8, i8* %14, i64 %16
  %18 = icmp ule i8* %13, %17
  br i1 %18, label %19, label %51

19:                                               ; preds = %12
  %20 = load i8*, i8** %4, align 8
  %21 = load i8, i8* %20, align 1
  %22 = sext i8 %21 to i32
  %23 = icmp ne i32 %22, 32
  br i1 %23, label %24, label %27

24:                                               ; preds = %19
  %25 = load i32, i32* %1, align 4
  %26 = add nsw i32 %25, 1
  store i32 %26, i32* %1, align 4
  br label %27

27:                                               ; preds = %24, %19
  %28 = load i8*, i8** %4, align 8
  %29 = load i8, i8* %28, align 1
  %30 = sext i8 %29 to i32
  %31 = icmp eq i32 %30, 32
  br i1 %31, label %32, label %38

32:                                               ; preds = %27
  %33 = load i32, i32* %1, align 4
  %34 = icmp sgt i32 %33, 0
  br i1 %34, label %35, label %38

35:                                               ; preds = %32
  %36 = load i32, i32* %1, align 4
  %37 = call i32 (i8*, ...) @printf(i8* getelementptr inbounds ([4 x i8], [4 x i8]* @.str, i64 0, i64 0), i32 %36)
  store i32 0, i32* %1, align 4
  br label %38

38:                                               ; preds = %35, %32, %27
  %39 = load i8*, i8** %4, align 8
  %40 = load i8, i8* %39, align 1
  %41 = sext i8 %40 to i32
  %42 = icmp eq i32 %41, 0
  br i1 %42, label %43, label %47

43:                                               ; preds = %38
  %44 = load i32, i32* %1, align 4
  %45 = sub nsw i32 %44, 1
  %46 = call i32 (i8*, ...) @printf(i8* getelementptr inbounds ([3 x i8], [3 x i8]* @.str.1, i64 0, i64 0), i32 %45)
  br label %47

47:                                               ; preds = %43, %38
  br label %48

48:                                               ; preds = %47
  %49 = load i8*, i8** %4, align 8
  %50 = getelementptr inbounds i8, i8* %49, i32 1
  store i8* %50, i8** %4, align 8
  br label %12

51:                                               ; preds = %12
  ret void
}

declare dso_local i32 @gets(...) #1

; Function Attrs: nounwind readonly
declare dso_local i64 @strlen(i8*) #2

declare dso_local i32 @printf(i8*, ...) #1


!llvm.module.flags = !{!0}
!llvm.ident = !{!1}

!0 = !{i32 1, !"wchar_size", i32 4}
!1 = !{!"clang version 10.0.0-4ubuntu1 "}
