; ModuleID = 'source-C-CXX/27/367.c'
source_filename = "source-C-CXX/27/367.c"
target datalayout = "e-m:e-p270:32:32-p271:32:32-p272:64:64-i64:64-f80:128-n8:16:32:64-S128"
target triple = "x86_64-pc-linux-gnu"

@.str = private unnamed_addr constant [4 x i8] c"%d,\00", align 1
@.str.1 = private unnamed_addr constant [3 x i8] c"%d\00", align 1

; Function Attrs: nounwind sspstrong uwtable
define dso_local void @main() local_unnamed_addr #0 {
  %1 = alloca [3000 x i8], align 16
  %2 = getelementptr inbounds [3000 x i8], [3000 x i8]* %1, i64 0, i64 0
  call void @llvm.lifetime.start.p0i8(i64 3000, i8* nonnull %2) #5
  %3 = call i32 (i8*, ...) bitcast (i32 (...)* @gets to i32 (i8*, ...)*)(i8* nonnull %2) #5
  %4 = call i64 @strlen(i8* noundef nonnull %2) #6
  %5 = shl i64 %4, 32
  %6 = ashr exact i64 %5, 32
  %7 = getelementptr inbounds [3000 x i8], [3000 x i8]* %1, i64 0, i64 %6
  %8 = icmp slt i64 %5, 0
  br i1 %8, label %32, label %9

9:                                                ; preds = %0, %29
  %10 = phi i8* [ %30, %29 ], [ %2, %0 ]
  %11 = phi i32 [ %24, %29 ], [ 0, %0 ]
  %12 = load i8, i8* %10, align 1, !tbaa !5
  %13 = icmp eq i8 %12, 32
  %14 = xor i1 %13, true
  %15 = zext i1 %14 to i32
  %16 = add nsw i32 %11, %15
  %17 = icmp sgt i32 %16, 0
  %18 = select i1 %13, i1 %17, i1 false
  br i1 %18, label %19, label %22

19:                                               ; preds = %9
  %20 = call i32 (i8*, ...) @printf(i8* nonnull dereferenceable(1) getelementptr inbounds ([4 x i8], [4 x i8]* @.str, i64 0, i64 0), i32 %16)
  %21 = load i8, i8* %10, align 1, !tbaa !5
  br label %22

22:                                               ; preds = %19, %9
  %23 = phi i8 [ %21, %19 ], [ %12, %9 ]
  %24 = phi i32 [ 0, %19 ], [ %16, %9 ]
  %25 = icmp eq i8 %23, 0
  br i1 %25, label %26, label %29

26:                                               ; preds = %22
  %27 = add nsw i32 %24, -1
  %28 = call i32 (i8*, ...) @printf(i8* nonnull dereferenceable(1) getelementptr inbounds ([3 x i8], [3 x i8]* @.str.1, i64 0, i64 0), i32 %27)
  br label %29

29:                                               ; preds = %22, %26
  %30 = getelementptr inbounds i8, i8* %10, i64 1
  %31 = icmp ugt i8* %30, %7
  br i1 %31, label %32, label %9, !llvm.loop !8

32:                                               ; preds = %29, %0
  call void @llvm.lifetime.end.p0i8(i64 3000, i8* nonnull %2) #5
  ret void
}

; Function Attrs: argmemonly mustprogress nofree nosync nounwind willreturn
declare void @llvm.lifetime.start.p0i8(i64 immarg, i8* nocapture) #1

declare i32 @gets(...) local_unnamed_addr #2

; Function Attrs: argmemonly mustprogress nofree nounwind readonly willreturn
declare i64 @strlen(i8* nocapture) local_unnamed_addr #3

; Function Attrs: nofree nounwind
declare noundef i32 @printf(i8* nocapture noundef readonly, ...) local_unnamed_addr #4

; Function Attrs: argmemonly mustprogress nofree nosync nounwind willreturn
declare void @llvm.lifetime.end.p0i8(i64 immarg, i8* nocapture) #1


!llvm.module.flags = !{!0, !1, !2, !3}
!llvm.ident = !{!4}

!0 = !{i32 1, !"wchar_size", i32 4}
!1 = !{i32 7, !"PIC Level", i32 2}
!2 = !{i32 7, !"PIE Level", i32 2}
!3 = !{i32 7, !"uwtable", i32 1}
!4 = !{!"clang version 13.0.0"}
!5 = !{!6, !6, i64 0}
!6 = !{!"omnipotent char", !7, i64 0}
!7 = !{!"Simple C/C++ TBAA"}
!8 = distinct !{!8, !9}
!9 = !{!"llvm.loop.mustprogress"}
